Certificate:
    Data:
        Version: 3 (0x2)
        Serial Number: 9 (0x9)
    Signature Algorithm: sha256WithRSAEncryption
        Issuer: C=CN, ST=tianjin, L=wuqing, O=yunwei, OU=mafan, CN=yunwei CA/name=EasyRSA/emailAddress=wangqinfeng511@163.com
        Validity
            Not Before: Jul 26 14:19:02 2016 GMT
            Not After : Jul 24 14:19:02 2026 GMT
        Subject: C=CN, ST=tianjin, L=wuqing, O=yunwei, OU=mafan, CN=app4/name=EasyRSA/emailAddress=wangqinfeng511@163.com
        Subject Public Key Info:
            Public Key Algorithm: rsaEncryption
                Public-Key: (2048 bit)
                Modulus:
                    00:cd:59:73:e1:01:5e:fd:fa:15:56:74:8f:7d:5c:
                    99:33:94:d7:34:52:90:70:5b:42:07:a6:ac:31:bb:
                    1a:a8:2c:5d:70:8e:51:64:0b:35:24:38:e8:45:8d:
                    bd:7a:1b:bd:c1:fc:14:7d:74:b1:90:5b:6f:d3:af:
                    1d:a4:6e:2e:13:1b:6b:bf:f8:12:d4:5e:1c:7f:92:
                    2d:32:05:1a:b6:95:54:5e:91:9f:74:74:8e:89:75:
                    a4:94:47:2e:53:75:65:3f:f5:8e:b7:72:a2:cc:a1:
                    72:a4:07:d1:68:ab:9c:d7:e4:90:9e:c8:75:08:b7:
                    7a:d3:3e:c8:1f:3a:40:f8:06:df:9d:20:59:51:11:
                    e0:b9:0a:97:d9:78:08:8b:8d:fd:d8:eb:5c:d4:c8:
                    85:2b:43:2c:a9:02:e6:aa:fe:97:d0:c7:da:4c:d6:
                    c0:e5:19:2d:40:69:f8:8b:08:5e:a6:93:09:5b:05:
                    41:26:38:b2:f0:b0:39:df:67:04:44:4d:22:d8:48:
                    43:e2:6e:d3:7e:56:a9:e0:19:a5:9d:18:d7:13:a9:
                    fd:44:ad:8b:7a:be:15:01:28:33:a1:bd:7f:43:80:
                    31:ac:24:29:b1:e4:2b:47:bb:8f:87:c5:24:49:05:
                    fc:9c:81:dc:e4:ad:59:1e:ea:53:ac:8e:77:c9:b4:
                    9e:37
                Exponent: 65537 (0x10001)
        X509v3 extensions:
            X509v3 Basic Constraints: 
                CA:FALSE
            Netscape Comment: 
                Easy-RSA Generated Certificate
            X509v3 Subject Key Identifier: 
                42:20:46:E1:2A:CB:06:CC:58:40:DE:86:CA:67:44:74:33:9E:F9:B9
            X509v3 Authority Key Identifier: 
                keyid:8C:35:C1:30:32:44:27:94:6B:43:FB:35:B1:50:69:E1:3B:E1:C4:B7
                DirName:/C=CN/ST=tianjin/L=wuqing/O=yunwei/OU=mafan/CN=yunwei CA/name=EasyRSA/emailAddress=wangqinfeng511@163.com
                serial:B5:15:CA:CE:24:65:A6:D7

            X509v3 Extended Key Usage: 
                TLS Web Client Authentication
            X509v3 Key Usage: 
                Digital Signature
    Signature Algorithm: sha256WithRSAEncryption
         76:d6:e0:0e:57:62:13:0a:43:d9:ac:33:d6:84:11:6f:5b:8f:
         12:4b:a6:f3:b4:55:86:5c:8d:13:34:cb:af:91:e4:39:82:13:
         96:c0:63:f1:56:af:f8:d3:c8:1f:6e:e3:af:b6:78:92:83:3f:
         99:84:d5:4f:2c:a8:d8:44:69:a2:1b:4c:fa:e7:51:04:a8:8a:
         18:d9:b9:bb:4c:a8:f5:61:b0:30:40:4c:22:20:23:cb:8d:09:
         00:69:cc:33:57:8d:e9:28:9c:9d:52:de:2c:76:0f:4c:af:24:
         ce:54:f1:d6:28:11:1e:6b:cd:f3:7d:9e:88:e1:9e:17:7f:13:
         b7:0b:a5:87:13:9b:4a:da:3f:0b:a2:55:de:2f:d4:11:a0:41:
         34:71:9a:85:6f:06:e6:58:5a:40:76:ff:e7:73:57:45:38:ac:
         4c:f2:35:14:0a:a1:b5:b8:37:2e:69:cf:53:60:93:e2:c4:6e:
         a2:4a:dd:3a:ae:80:76:21:96:0c:de:5d:06:30:1a:94:88:d7:
         85:02:e1:75:25:13:13:71:0e:0f:46:52:b7:ec:1a:a9:ac:ac:
         b6:23:4d:38:87:be:64:eb:3f:df:33:40:82:5f:86:c3:29:20:
         5e:b6:ac:45:91:83:b3:49:91:c6:b4:ec:fa:a6:a4:27:dc:d3:
         19:ed:c1:98
-----BEGIN CERTIFICATE-----
MIIFCzCCA/OgAwIBAgIBCTANBgkqhkiG9w0BAQsFADCBnjELMAkGA1UEBhMCQ04x
EDAOBgNVBAgTB3RpYW5qaW4xDzANBgNVBAcTBnd1cWluZzEPMA0GA1UEChMGeXVu
d2VpMQ4wDAYDVQQLEwVtYWZhbjESMBAGA1UEAxMJeXVud2VpIENBMRAwDgYDVQQp
EwdFYXN5UlNBMSUwIwYJKoZIhvcNAQkBFhZ3YW5ncWluZmVuZzUxMUAxNjMuY29t
MB4XDTE2MDcyNjE0MTkwMloXDTI2MDcyNDE0MTkwMlowgZkxCzAJBgNVBAYTAkNO
MRAwDgYDVQQIEwd0aWFuamluMQ8wDQYDVQQHEwZ3dXFpbmcxDzANBgNVBAoTBnl1
bndlaTEOMAwGA1UECxMFbWFmYW4xDTALBgNVBAMTBGFwcDQxEDAOBgNVBCkTB0Vh
c3lSU0ExJTAjBgkqhkiG9w0BCQEWFndhbmdxaW5mZW5nNTExQDE2My5jb20wggEi
MA0GCSqGSIb3DQEBAQUAA4IBDwAwggEKAoIBAQDNWXPhAV79+hVWdI99XJkzlNc0
UpBwW0IHpqwxuxqoLF1wjlFkCzUkOOhFjb16G73B/BR9dLGQW2/Trx2kbi4TG2u/
+BLUXhx/ki0yBRq2lVRekZ90dI6JdaSURy5TdWU/9Y63cqLMoXKkB9Foq5zX5JCe
yHUIt3rTPsgfOkD4Bt+dIFlREeC5CpfZeAiLjf3Y61zUyIUrQyypAuaq/pfQx9pM
1sDlGS1AafiLCF6mkwlbBUEmOLLwsDnfZwRETSLYSEPibtN+VqngGaWdGNcTqf1E
rYt6vhUBKDOhvX9DgDGsJCmx5CtHu4+HxSRJBfycgdzkrVke6lOsjnfJtJ43AgMB
AAGjggFVMIIBUTAJBgNVHRMEAjAAMC0GCWCGSAGG+EIBDQQgFh5FYXN5LVJTQSBH
ZW5lcmF0ZWQgQ2VydGlmaWNhdGUwHQYDVR0OBBYEFEIgRuEqywbMWEDehspnRHQz
nvm5MIHTBgNVHSMEgcswgciAFIw1wTAyRCeUa0P7NbFQaeE74cS3oYGkpIGhMIGe
MQswCQYDVQQGEwJDTjEQMA4GA1UECBMHdGlhbmppbjEPMA0GA1UEBxMGd3VxaW5n
MQ8wDQYDVQQKEwZ5dW53ZWkxDjAMBgNVBAsTBW1hZmFuMRIwEAYDVQQDEwl5dW53
ZWkgQ0ExEDAOBgNVBCkTB0Vhc3lSU0ExJTAjBgkqhkiG9w0BCQEWFndhbmdxaW5m
ZW5nNTExQDE2My5jb22CCQC1FcrOJGWm1zATBgNVHSUEDDAKBggrBgEFBQcDAjAL
BgNVHQ8EBAMCB4AwDQYJKoZIhvcNAQELBQADggEBAHbW4A5XYhMKQ9msM9aEEW9b
jxJLpvO0VYZcjRM0y6+R5DmCE5bAY/FWr/jTyB9u46+2eJKDP5mE1U8sqNhEaaIb
TPrnUQSoihjZubtMqPVhsDBATCIgI8uNCQBpzDNXjekonJ1S3ix2D0yvJM5U8dYo
ER5rzfN9nojhnhd/E7cLpYcTm0raPwuiVd4v1BGgQTRxmoVvBuZYWkB2/+dzV0U4
rEzyNRQKobW4Ny5pz1Ngk+LEbqJK3TqugHYhlgzeXQYwGpSI14UC4XUlExNxDg9G
UrfsGqmsrLYjTTiHvmTrP98zQIJfhsMpIF62rEWRg7NJkca07PqmpCfc0xntwZg=
-----END CERTIFICATE-----
