Certificate:
    Data:
        Version: 3 (0x2)
        Serial Number: 1 (0x1)
    Signature Algorithm: sha256WithRSAEncryption
        Issuer: C=CN, ST=tianjin, L=wuqing, O=yunwei, OU=mafan, CN=yunwei CA/name=EasyRSA/emailAddress=wangqinfeng511@163.com
        Validity
            Not Before: Jul 26 13:34:56 2016 GMT
            Not After : Jul 24 13:34:56 2026 GMT
        Subject: C=CN, ST=tianjin, L=wuqing, O=yunwei, OU=mafan, CN=server/name=EasyRSA/emailAddress=wangqinfeng511@163.com
        Subject Public Key Info:
            Public Key Algorithm: rsaEncryption
                Public-Key: (2048 bit)
                Modulus:
                    00:b6:24:26:1a:1d:20:57:99:a0:d6:9b:af:5a:cb:
                    02:71:66:be:5f:e7:bf:51:59:56:59:ae:6b:19:17:
                    1a:94:d4:35:7e:c7:20:af:dd:c5:17:e9:1e:56:d6:
                    ba:8c:b3:ee:39:11:3c:2e:78:41:b0:0e:8e:bd:0e:
                    07:29:59:63:38:94:bb:bf:f0:5e:97:46:02:77:16:
                    7a:90:d0:d3:a7:07:20:5d:9a:e1:e2:6c:ab:86:75:
                    7c:b1:7b:29:a0:63:30:2f:8f:01:09:19:38:70:c0:
                    29:66:bc:31:f2:d1:34:52:41:25:39:53:fb:e5:b9:
                    83:42:b2:3d:eb:d3:19:fd:ab:bf:16:e5:d2:0a:2b:
                    e2:4a:68:60:a1:7a:ce:03:c7:9a:43:8b:f3:8a:71:
                    1d:ad:f8:c4:14:c5:02:21:cf:54:03:49:31:32:ac:
                    27:d5:8f:38:38:02:37:22:12:39:0b:c9:12:15:c1:
                    b7:bf:5a:ae:c2:85:ff:26:0f:fc:6a:cf:8e:a3:69:
                    c1:1c:3b:dc:b0:0c:d5:81:b2:8c:88:90:17:41:62:
                    8d:5d:ab:66:5c:48:d4:fb:b5:c2:bc:4d:e3:d4:ea:
                    bc:bd:35:6a:7c:c2:90:5c:46:f2:df:23:5f:55:47:
                    53:ba:8d:b0:71:2a:17:e8:2e:20:ec:3f:4a:5a:80:
                    34:19
                Exponent: 65537 (0x10001)
        X509v3 extensions:
            X509v3 Basic Constraints: 
                CA:FALSE
            Netscape Cert Type: 
                SSL Server
            Netscape Comment: 
                Easy-RSA Generated Server Certificate
            X509v3 Subject Key Identifier: 
                5E:A4:1E:19:23:23:49:0D:DD:A2:92:C0:4B:22:BA:C8:79:F4:1A:17
            X509v3 Authority Key Identifier: 
                keyid:8C:35:C1:30:32:44:27:94:6B:43:FB:35:B1:50:69:E1:3B:E1:C4:B7
                DirName:/C=CN/ST=tianjin/L=wuqing/O=yunwei/OU=mafan/CN=yunwei CA/name=EasyRSA/emailAddress=wangqinfeng511@163.com
                serial:B5:15:CA:CE:24:65:A6:D7

            X509v3 Extended Key Usage: 
                TLS Web Server Authentication
            X509v3 Key Usage: 
                Digital Signature, Key Encipherment
    Signature Algorithm: sha256WithRSAEncryption
         8b:88:da:91:ab:20:81:a4:a8:74:87:0b:6e:25:c6:d7:42:c2:
         50:5a:bb:09:31:5d:36:1d:2a:5c:5e:58:7d:56:6b:d8:d5:f0:
         43:2c:e2:01:4a:f0:35:ec:0f:68:bc:e0:47:38:7a:30:a5:7b:
         75:9b:62:30:a6:2d:7a:59:f3:6e:44:e7:d4:70:f2:9c:4d:4e:
         4b:ae:51:cc:4c:f6:a2:98:93:ce:17:dd:5b:67:d1:dd:23:b6:
         a0:24:f3:b7:70:30:d8:5e:9c:75:52:b2:14:8d:58:88:72:d8:
         19:08:9f:02:52:66:09:59:6e:33:f9:5b:10:c1:88:4a:80:55:
         49:e7:55:20:9b:bf:dd:cb:2e:b7:44:89:86:e6:03:2d:2c:39:
         57:6d:41:5f:a6:dd:ca:e0:c4:a7:d2:dc:8d:1e:89:9b:81:24:
         8b:9d:dd:63:e0:14:8b:1c:2e:d1:28:18:21:a5:e3:1f:76:31:
         88:5d:76:52:66:8c:6c:26:2b:56:d8:de:d7:19:ae:fc:56:4d:
         7e:1e:fc:bb:38:1e:10:f5:5b:dc:a1:b1:68:29:88:eb:a1:93:
         d0:d0:03:94:34:d1:14:60:da:04:36:2d:9e:b0:c6:11:30:eb:
         93:54:13:9b:33:96:0e:fd:15:81:c4:70:0e:41:b3:b6:75:d6:
         a2:67:3e:2c
-----BEGIN CERTIFICATE-----
MIIFJzCCBA+gAwIBAgIBATANBgkqhkiG9w0BAQsFADCBnjELMAkGA1UEBhMCQ04x
EDAOBgNVBAgTB3RpYW5qaW4xDzANBgNVBAcTBnd1cWluZzEPMA0GA1UEChMGeXVu
d2VpMQ4wDAYDVQQLEwVtYWZhbjESMBAGA1UEAxMJeXVud2VpIENBMRAwDgYDVQQp
EwdFYXN5UlNBMSUwIwYJKoZIhvcNAQkBFhZ3YW5ncWluZmVuZzUxMUAxNjMuY29t
MB4XDTE2MDcyNjEzMzQ1NloXDTI2MDcyNDEzMzQ1NlowgZsxCzAJBgNVBAYTAkNO
MRAwDgYDVQQIEwd0aWFuamluMQ8wDQYDVQQHEwZ3dXFpbmcxDzANBgNVBAoTBnl1
bndlaTEOMAwGA1UECxMFbWFmYW4xDzANBgNVBAMTBnNlcnZlcjEQMA4GA1UEKRMH
RWFzeVJTQTElMCMGCSqGSIb3DQEJARYWd2FuZ3FpbmZlbmc1MTFAMTYzLmNvbTCC
ASIwDQYJKoZIhvcNAQEBBQADggEPADCCAQoCggEBALYkJhodIFeZoNabr1rLAnFm
vl/nv1FZVlmuaxkXGpTUNX7HIK/dxRfpHlbWuoyz7jkRPC54QbAOjr0OBylZYziU
u7/wXpdGAncWepDQ06cHIF2a4eJsq4Z1fLF7KaBjMC+PAQkZOHDAKWa8MfLRNFJB
JTlT++W5g0KyPevTGf2rvxbl0gor4kpoYKF6zgPHmkOL84pxHa34xBTFAiHPVANJ
MTKsJ9WPODgCNyISOQvJEhXBt79arsKF/yYP/GrPjqNpwRw73LAM1YGyjIiQF0Fi
jV2rZlxI1Pu1wrxN49TqvL01anzCkFxG8t8jX1VHU7qNsHEqF+guIOw/SlqANBkC
AwEAAaOCAW8wggFrMAkGA1UdEwQCMAAwEQYJYIZIAYb4QgEBBAQDAgZAMDQGCWCG
SAGG+EIBDQQnFiVFYXN5LVJTQSBHZW5lcmF0ZWQgU2VydmVyIENlcnRpZmljYXRl
MB0GA1UdDgQWBBRepB4ZIyNJDd2iksBLIrrIefQaFzCB0wYDVR0jBIHLMIHIgBSM
NcEwMkQnlGtD+zWxUGnhO+HEt6GBpKSBoTCBnjELMAkGA1UEBhMCQ04xEDAOBgNV
BAgTB3RpYW5qaW4xDzANBgNVBAcTBnd1cWluZzEPMA0GA1UEChMGeXVud2VpMQ4w
DAYDVQQLEwVtYWZhbjESMBAGA1UEAxMJeXVud2VpIENBMRAwDgYDVQQpEwdFYXN5
UlNBMSUwIwYJKoZIhvcNAQkBFhZ3YW5ncWluZmVuZzUxMUAxNjMuY29tggkAtRXK
ziRlptcwEwYDVR0lBAwwCgYIKwYBBQUHAwEwCwYDVR0PBAQDAgWgMA0GCSqGSIb3
DQEBCwUAA4IBAQCLiNqRqyCBpKh0hwtuJcbXQsJQWrsJMV02HSpcXlh9VmvY1fBD
LOIBSvA17A9ovOBHOHowpXt1m2Iwpi16WfNuROfUcPKcTU5LrlHMTPaimJPOF91b
Z9HdI7agJPO3cDDYXpx1UrIUjViIctgZCJ8CUmYJWW4z+VsQwYhKgFVJ51Ugm7/d
yy63RImG5gMtLDlXbUFfpt3K4MSn0tyNHombgSSLnd1j4BSLHC7RKBghpeMfdjGI
XXZSZoxsJitW2N7XGa78Vk1+Hvy7OB4Q9VvcobFoKYjroZPQ0AOUNNEUYNoENi2e
sMYRMOuTVBObM5YO/RWBxHAOQbO2ddaiZz4s
-----END CERTIFICATE-----
