Certificate:
    Data:
        Version: 3 (0x2)
        Serial Number: 1 (0x1)
    Signature Algorithm: sha256WithRSAEncryption
        Issuer: C=CN, ST=tianjin, L=wuqing, O=yuanmeixing, OU=yunwei, CN=server/name=EasyRSA/emailAddress=wangqinfeng511@163.com
        Validity
            Not Before: May 19 08:47:02 2016 GMT
            Not After : May 17 08:47:02 2026 GMT
        Subject: C=CN, ST=tianjin, L=wuqing, O=yuanmeixing, OU=yunwei, CN=client/name=EasyRSA/emailAddress=wangqinfeng511@163.com
        Subject Public Key Info:
            Public Key Algorithm: rsaEncryption
                Public-Key: (2048 bit)
                Modulus:
                    00:ce:7b:b1:6a:9d:75:65:18:23:bb:c1:b4:22:78:
                    cf:42:10:c4:9c:9c:f1:3c:3c:67:46:d6:74:c5:07:
                    98:17:c0:62:2b:eb:8b:94:46:d6:3f:10:a7:43:54:
                    6b:01:00:5f:88:89:6a:9c:9f:f5:38:33:43:59:75:
                    07:bf:39:fe:a0:8c:2f:16:69:54:8b:40:87:45:51:
                    52:a9:9f:8c:5b:8e:13:8d:9a:b2:46:d8:fc:80:12:
                    23:a0:c4:93:ad:96:b9:44:ec:74:43:bc:f7:9a:68:
                    4c:11:b8:63:0b:09:5a:25:9a:5b:41:ce:c7:c8:3c:
                    d8:69:ac:ed:65:e7:5b:5a:04:ca:1d:64:c8:bc:6a:
                    eb:e3:64:f5:6f:fc:86:5d:bf:fd:78:ca:9f:da:21:
                    25:f0:36:b0:f7:21:92:85:06:7e:c7:7c:cf:9a:c5:
                    48:1b:9e:48:6d:17:75:48:d2:77:7c:36:f0:2d:8d:
                    1b:7d:fa:0f:42:5e:90:ff:04:3f:2b:4f:0c:04:bc:
                    2b:c5:ea:0a:87:47:2d:0a:09:10:bd:75:a0:10:81:
                    ed:2f:1e:8d:9b:d0:d2:c5:bb:93:12:ca:ae:d0:29:
                    af:88:76:82:7e:a0:53:ee:2a:d1:b6:45:c2:48:28:
                    05:da:d6:f4:8d:e6:45:bc:b5:6d:86:94:d4:e6:ec:
                    1b:7b
                Exponent: 65537 (0x10001)
        X509v3 extensions:
            X509v3 Basic Constraints: 
                CA:FALSE
            Netscape Comment: 
                Easy-RSA Generated Certificate
            X509v3 Subject Key Identifier: 
                52:CC:BD:8D:88:7F:C1:9D:EE:ED:7D:03:F1:12:27:A4:AB:4D:BA:5D
            X509v3 Authority Key Identifier: 
                keyid:82:38:9A:CF:B6:15:95:75:6F:D1:96:06:5F:BB:AC:3F:06:0C:6D:C6
                DirName:/C=CN/ST=tianjin/L=wuqing/O=yuanmeixing/OU=yunwei/CN=server/name=EasyRSA/emailAddress=wangqinfeng511@163.com
                serial:AE:DB:63:39:82:99:2E:C7

            X509v3 Extended Key Usage: 
                TLS Web Client Authentication
            X509v3 Key Usage: 
                Digital Signature
    Signature Algorithm: sha256WithRSAEncryption
         92:6a:c1:f1:45:aa:2c:f8:ca:f0:62:e2:08:67:dc:87:9a:46:
         0b:9f:53:40:7a:44:c6:35:20:bf:e8:2a:10:34:a0:cb:f3:bc:
         90:7c:b4:8f:42:cb:45:7c:aa:01:d1:a5:92:9f:1e:04:6d:b0:
         0a:dd:b9:8b:d0:62:9c:18:c0:7c:7e:a2:03:76:31:d4:53:00:
         5e:da:b8:6f:0e:be:b3:1e:b2:72:83:70:e6:b3:2d:f7:a3:f3:
         31:31:1a:fa:19:a8:02:30:98:40:8b:fa:62:9d:57:b5:04:31:
         2d:99:37:1e:07:2a:07:8a:6e:71:d6:b7:7d:6e:b3:c5:4a:41:
         16:8e:2f:f8:be:f8:68:31:b1:f6:72:24:98:94:16:d0:72:74:
         c1:3e:f2:08:70:38:ca:c8:eb:60:de:36:46:28:95:f5:25:74:
         26:70:2f:cc:97:f4:f2:f4:fe:f9:f3:d0:b8:94:48:aa:49:6d:
         59:f6:3c:3b:c0:41:d5:33:6a:75:4d:11:c9:ff:5e:38:57:3a:
         6b:f2:e6:c9:5b:99:44:0d:6c:09:47:c3:1a:45:94:cd:9a:f8:
         98:f5:3f:61:96:de:1a:5d:cd:0c:f8:d9:d4:ca:5d:35:31:01:
         c4:6b:87:68:cc:9e:ca:be:3c:8d:30:6a:ad:c8:9d:f5:d5:67:
         9e:e3:29:43
-----BEGIN CERTIFICATE-----
MIIFGTCCBAGgAwIBAgIBATANBgkqhkiG9w0BAQsFADCBoTELMAkGA1UEBhMCQ04x
EDAOBgNVBAgTB3RpYW5qaW4xDzANBgNVBAcTBnd1cWluZzEUMBIGA1UEChMLeXVh
bm1laXhpbmcxDzANBgNVBAsTBnl1bndlaTEPMA0GA1UEAxMGc2VydmVyMRAwDgYD
VQQpEwdFYXN5UlNBMSUwIwYJKoZIhvcNAQkBFhZ3YW5ncWluZmVuZzUxMUAxNjMu
Y29tMB4XDTE2MDUxOTA4NDcwMloXDTI2MDUxNzA4NDcwMlowgaExCzAJBgNVBAYT
AkNOMRAwDgYDVQQIEwd0aWFuamluMQ8wDQYDVQQHEwZ3dXFpbmcxFDASBgNVBAoT
C3l1YW5tZWl4aW5nMQ8wDQYDVQQLEwZ5dW53ZWkxDzANBgNVBAMTBmNsaWVudDEQ
MA4GA1UEKRMHRWFzeVJTQTElMCMGCSqGSIb3DQEJARYWd2FuZ3FpbmZlbmc1MTFA
MTYzLmNvbTCCASIwDQYJKoZIhvcNAQEBBQADggEPADCCAQoCggEBAM57sWqddWUY
I7vBtCJ4z0IQxJyc8Tw8Z0bWdMUHmBfAYivri5RG1j8Qp0NUawEAX4iJapyf9Tgz
Q1l1B785/qCMLxZpVItAh0VRUqmfjFuOE42askbY/IASI6DEk62WuUTsdEO895po
TBG4YwsJWiWaW0HOx8g82Gms7WXnW1oEyh1kyLxq6+Nk9W/8hl2//XjKn9ohJfA2
sPchkoUGfsd8z5rFSBueSG0XdUjSd3w28C2NG336D0JekP8EPytPDAS8K8XqCodH
LQoJEL11oBCB7S8ejZvQ0sW7kxLKrtApr4h2gn6gU+4q0bZFwkgoBdrW9I3mRby1
bYaU1ObsG3sCAwEAAaOCAVgwggFUMAkGA1UdEwQCMAAwLQYJYIZIAYb4QgENBCAW
HkVhc3ktUlNBIEdlbmVyYXRlZCBDZXJ0aWZpY2F0ZTAdBgNVHQ4EFgQUUsy9jYh/
wZ3u7X0D8RInpKtNul0wgdYGA1UdIwSBzjCBy4AUgjiaz7YVlXVv0ZYGX7usPwYM
bcahgaekgaQwgaExCzAJBgNVBAYTAkNOMRAwDgYDVQQIEwd0aWFuamluMQ8wDQYD
VQQHEwZ3dXFpbmcxFDASBgNVBAoTC3l1YW5tZWl4aW5nMQ8wDQYDVQQLEwZ5dW53
ZWkxDzANBgNVBAMTBnNlcnZlcjEQMA4GA1UEKRMHRWFzeVJTQTElMCMGCSqGSIb3
DQEJARYWd2FuZ3FpbmZlbmc1MTFAMTYzLmNvbYIJAK7bYzmCmS7HMBMGA1UdJQQM
MAoGCCsGAQUFBwMCMAsGA1UdDwQEAwIHgDANBgkqhkiG9w0BAQsFAAOCAQEAkmrB
8UWqLPjK8GLiCGfch5pGC59TQHpExjUgv+gqEDSgy/O8kHy0j0LLRXyqAdGlkp8e
BG2wCt25i9BinBjAfH6iA3Yx1FMAXtq4bw6+sx6ycoNw5rMt96PzMTEa+hmoAjCY
QIv6Yp1XtQQxLZk3HgcqB4pucda3fW6zxUpBFo4v+L74aDGx9nIkmJQW0HJ0wT7y
CHA4ysjrYN42RiiV9SV0JnAvzJf08vT++fPQuJRIqkltWfY8O8BB1TNqdU0Ryf9e
OFc6a/LmyVuZRA1sCUfDGkWUzZr4mPU/YZbeGl3NDPjZ1MpdNTEBxGuHaMyeyr48
jTBqrcid9dVnnuMpQw==
-----END CERTIFICATE-----
